; Function Attrs: mustprogress nofree norecurse nosync nounwind willreturn memory(argmem: write) uwtable
define void @_ZN5faiss13InvertedListsC2Emm(ptr noundef nonnull writeonly align 8 captures(none) dereferenceable(25) initializes((0, 25)) %0, i64 noundef %1, i64 noundef %2) unnamed_addr #9 align 2 {
  store ptr getelementptr inbounds nuw inrange(-16, 144) (i8, ptr @_ZTVN5faiss13InvertedListsE, i64 16), ptr %0, align 8, !tbaa !4
  %4 = getelementptr inbounds nuw i8, ptr %0, i64 8
  store i64 %1, ptr %4, align 8, !tbaa !39
  %5 = getelementptr inbounds nuw i8, ptr %0, i64 16
  store i64 %2, ptr %5, align 8, !tbaa !10
  %6 = getelementptr inbounds nuw i8, ptr %0, i64 24
  store i8 0, ptr %6, align 8, !tbaa !13
  ret void
}